(dp0
S'mat'
p1
(lp2
(lp3
F-9.479337675965686
aF-3.9374418196891328
aF-3.2226593301570428
aF-3.049462122697972
aF-6.052661209002546
aF-4.701027742221064
aF-3.996148244495669
aF-6.762722112004553
aF-3.2476504532133506
aF-7.069780463419472
aF-4.512665505290546
aF-2.500402671094854
aF-3.645187409748433
aF-1.5712233242827365
aF-8.00066999471478
aF-3.8955988547540366
aF-9.822282427092516
aF-2.303009160298895
aF-2.349084215165763
aF-1.9464377950023393
aF-4.541619995783201
aF-3.873535609669689
aF-4.7124876220709835
aF-6.560695484131266
aF-3.65020232303568
aF-6.64612433190947
aF-10.610739787456787
aF-10.610739787456787
aF-10.610739787456787
aF-10.515429607652461
aF-10.515429607652461
aF-10.610739787456787
aF-10.610739787456787
aF-10.610739787456787
aF-10.610739787456787
aF-10.610739787456787
aF-7.138773334906424
aF-7.219592741648133
aF-2.7218802932684922
aa(lp4
F-2.555022070922653
aF-5.143189130591364
aF-6.080682070116121
aF-6.284665123691256
aF-1.1753191121441047
aF-8.80675077672101
aF-8.902060956525334
aF-8.639696692057843
aF-3.3348621469892343
aF-5.006167333027072
aF-8.80675077672101
aF-2.1409512578846823
aF-6.123241684534918
aF-6.88715793598307
aF-2.1475734139464153
aF-8.719739399731381
aF-8.902060956525334
aF-2.7210096416319858
aF-3.7912787138241404
aF-4.7063639000429465
aF-2.138984688912642
aF-6.3218441269330095
aF-7.7081384880529
aF-8.902060956525334
aF-2.3627640600222666
aF-8.902060956525334
aF-8.902060956525334
aF-8.902060956525334
aF-8.902060956525334
aF-8.902060956525334
aF-8.902060956525334
aF-8.902060956525334
aF-8.902060956525334
aF-8.902060956525334
aF-8.902060956525334
aF-8.902060956525334
aF-7.215662002955106
aF-7.738910146719654
aF-4.773314967585901
aa(lp5
F-2.0906187959056295
aF-9.581483150238775
aF-3.8481418733410293
aF-7.679375623841854
aF-1.7399902257787618
aF-8.793025789874504
aF-9.581483150238775
aF-1.9103086377113605
aF-2.9344434954786043
aF-9.486172970434449
aF-3.3445266481528213
aF-3.2779488426221817
aF-8.551863733057617
aF-8.93962926406638
aF-1.6009805487835822
aF-9.486172970434449
aF-6.3869000179396185
aF-3.3785428566842652
aF-5.848586810708064
aF-2.3923908863646974
aF-3.219317487458968
aF-9.581483150238775
aF-8.993696485336656
aF-9.581483150238775
aF-4.622141150530069
aF-8.328720181743407
aF-9.245010913617563
aF-9.486172970434449
aF-9.11147952099304
aF-9.581483150238775
aF-9.581483150238775
aF-9.581483150238775
aF-9.581483150238775
aF-9.581483150238775
aF-9.581483150238775
aF-9.581483150238775
aF-8.146398624949452
aF-7.709680973337183
aF-3.885061029988866
aa(lp6
F-3.7338982600433117
aF-8.73478926266489
aF-8.567735178001723
aF-4.57024044176954
aF-1.9712543348570852
aF-7.1253513502307895
aF-5.435591048957856
aF-7.038339973241159
aF-2.4651765833881543
aF-6.278053489843585
aF-7.666948632663534
aF-4.578276410327181
aF-5.537973155861421
aF-6.082828528213723
aF-3.1205558173779417
aF-9.09580260820222
aF-8.153759380225651
aF-3.626642356945138
aF-3.7061354630659555
aF-7.874587997441778
aF-3.9980593234260997
aF-5.572002904447732
aF-7.395014917179892
aF-9.928711731137325
aF-4.61698467767937
aF-9.74639017434337
aF-9.928711731137325
aF-9.833401551332999
aF-9.928711731137325
aF-9.928711731137325
aF-9.928711731137325
aF-9.928711731137325
aF-9.928711731137325
aF-9.928711731137325
aF-9.928711731137325
aF-9.928711731137325
aF-5.501472753641894
aF-7.512797952836276
aF-0.5408111194688972
aa(lp7
F-3.1013069199965444
aF-6.400192236919087
aF-3.7206101671092697
aF-2.4160722524109173
aF-3.732868625445514
aF-4.570086848875278
aF-4.961795291703085
aF-6.4070854202944005
aF-4.476825042906214
aF-8.214781481785268
aF-7.050125780800167
aF-3.442209727491202
aF-3.7518552314335407
aF-2.390079440824027
aF-5.297010749700989
aF-4.435120157491754
aF-6.26973228844392
aF-1.9769040576287855
aF-2.5215768440599464
aF-3.752827994156163
aF-6.058546248982245
aF-4.116228918162962
aF-4.733541392449577
aF-4.451482142033427
aF-4.537870960796933
aF-7.732057890539973
aF-10.331036996587821
aF-10.493555926085595
aF-10.761819912680275
aF-10.761819912680275
aF-10.841862620353812
aF-10.761819912680275
aF-10.55418054790203
aF-10.436397512245646
aF-10.493555926085595
aF-11.024184177147765
aF-5.989181526603216
aF-7.60318416818943
aF-1.1306863562410059
aa(lp8
F-2.768806810546061
aF-8.036122228754818
aF-9.371123295487157
aF-9.275813115682833
aF-2.4533186806520195
aF-2.928423906026823
aF-9.108759031019668
aF-8.965658187378994
aF-2.4524280764666866
aF-9.108759031019668
aF-8.840495044424987
aF-3.749998054511966
aF-9.108759031019668
aF-7.741882755756878
aF-1.9057542312402713
aF-9.371123295487157
aF-9.371123295487157
aF-2.358827837231097
aF-6.113026757465676
aF-3.318563649019365
aF-3.5069240994250523
aF-9.371123295487157
aF-7.912508272787641
aF-9.371123295487157
aF-6.140318899753684
aF-9.371123295487157
aF-9.188801738693204
aF-9.188801738693204
aF-8.677976114927212
aF-9.188801738693204
aF-9.188801738693204
aF-9.188801738693204
aF-9.371123295487157
aF-9.371123295487157
aF-9.371123295487157
aF-9.371123295487157
aF-5.8991568429367955
aF-8.677976114927212
aF-0.999395279002868
aa(lp9
F-2.685945846870059
aF-8.887078948557386
aF-9.149443213024876
aF-7.1345401924826115
aF-1.9652690538696693
aF-8.4075058682955
aF-4.635292425423954
aF-2.2241427548269908
aF-2.863445118516012
aF-9.149443213024876
aF-8.679439583779141
aF-3.360707032488512
aF-6.124152137229341
aF-3.744066774183432
aF-2.8348088005355603
aF-8.887078948557386
aF-9.149443213024876
aF-2.561204730014539
aF-4.087481291763281
aF-5.194360718136283
aF-3.496252524484736
aF-9.149443213024876
aF-7.868509367562813
aF-9.149443213024876
aF-5.891346675003395
aF-8.887078948557386
aF-8.967121656230923
aF-9.149443213024876
aF-9.149443213024876
aF-9.149443213024876
aF-9.149443213024876
aF-9.149443213024876
aF-9.149443213024876
aF-9.149443213024876
aF-9.149443213024876
aF-9.149443213024876
aF-5.365253579106615
aF-7.045309058754669
aF-1.0335637585943276
aa(lp10
F-1.8962098174331279
aF-7.5047711352374575
aF-8.167334892425322
aF-7.575540206125664
aF-0.7291569114991178
aF-7.913346665760014
aF-10.188280227423549
aF-9.253970990046716
aF-1.9965150308631834
aF-10.188280227423549
aF-7.913346665760014
aF-6.6486392951394935
aF-6.274440691069006
aF-6.716878587088146
aF-2.5625077874296873
aF-9.59044322666793
aF-10.10126885043392
aF-4.576147971740187
aF-6.25289587208223
aF-3.7697670005402286
aF-4.62271543358295
aF-9.64173652105548
aF-7.4802300263213395
aF-10.283590407227875
aF-5.0302704066105735
aF-10.188280227423549
aF-9.947118170606661
aF-10.188280227423549
aF-10.283590407227875
aF-10.283590407227875
aF-10.283590407227875
aF-10.283590407227875
aF-10.283590407227875
aF-10.283590407227875
aF-10.283590407227875
aF-10.283590407227875
aF-6.962157994034581
aF-8.757534103732825
aF-2.3636525675760156
aa(lp11
F-3.7152953099504558
aF-4.72028518292796
aF-2.7845175558855257
aF-3.2224379093394866
aF-3.168692435485806
aF-3.9067648214424135
aF-3.681255113211534
aF-9.170953750324005
aF-6.425033275166386
aF-10.32363326026239
aF-5.241194234037152
aF-3.080239425407618
aF-3.174436201684668
aF-1.3130658386939185
aF-2.664737087691734
aF-4.9338007848785805
aF-7.895885024314339
aF-3.4102273097714395
aF-2.0527669556160206
aF-2.1023335405250267
aF-6.511430590116456
aF-3.8172265738765785
aF-9.975326565994175
aF-6.168664076223855
aF-10.410644637252021
aF-5.512126641276471
aF-9.918168152154227
aF-10.32363326026239
aF-10.505954817056345
aF-10.505954817056345
aF-10.505954817056345
aF-10.505954817056345
aF-10.505954817056345
aF-10.505954817056345
aF-10.505954817056345
aF-10.505954817056345
aF-7.515235085325899
aF-9.342804007250665
aF-3.7912989680400417
aa(lp12
F-2.3605023630671615
aF-6.120150888069305
aF-6.055612366931734
aF-6.52561599617747
aF-1.4330935426090294
aF-6.263251731709978
aF-6.189143759556257
aF-6.343294439383515
aF-5.532364223167186
aF-6.52561599617747
aF-6.263251731709978
aF-6.430305816373145
aF-6.343294439383515
aF-6.52561599617747
aF-1.2961129456297926
aF-6.430305816373145
aF-6.343294439383515
aF-6.120150888069305
aF-6.120150888069305
aF-6.263251731709978
aF-1.1179958947389825
aF-6.52561599617747
aF-6.263251731709978
aF-6.52561599617747
aF-6.52561599617747
aF-6.52561599617747
aF-6.52561599617747
aF-6.52561599617747
aF-6.52561599617747
aF-6.52561599617747
aF-6.52561599617747
aF-6.52561599617747
aF-6.52561599617747
aF-6.52561599617747
aF-6.52561599617747
aF-6.52561599617747
aF-6.52561599617747
aF-6.263251731709978
aF-4.936380791060889
aa(lp13
F-3.6409011654730383
aF-7.493410043368777
aF-6.289437239042841
aF-7.744724471649683
aF-1.2163489303000352
aF-6.37644861603247
aF-6.949794596779795
aF-3.651571094797735
aF-1.7909247059277145
aF-8.081196708270896
aF-7.985886528466571
aF-3.9098911049126666
aF-6.135286559215582
aF-2.3595743154863635
aF-3.8485405302512827
aF-7.898875151476941
aF-7.985886528466571
aF-5.53959471480635
aF-3.011035434860613
aF-6.982584419602786
aF-3.7504633679845645
aF-7.292739347906625
aF-5.50858447806379
aF-8.081196708270896
aF-4.690049662462242
aF-8.081196708270896
aF-8.081196708270896
aF-8.081196708270896
aF-8.081196708270896
aF-8.081196708270896
aF-8.081196708270896
aF-8.081196708270896
aF-8.081196708270896
aF-8.081196708270896
aF-8.081196708270896
aF-8.081196708270896
aF-5.21329780622679
aF-6.694902347151005
aF-1.4357156978060068
aa(lp14
F-2.270536741252998
aF-6.685830372573601
aF-5.773629625950971
aF-2.8637767324829833
aF-1.785131429025793
aF-4.154728435193827
aF-6.898821552423792
aF-7.938593341068969
aF-2.1762724528296746
aF-9.789193310319957
aF-4.977748326515418
aF-2.067159890327665
aF-5.073132473552293
aF-6.534599402849677
aF-2.4520788555555035
aF-5.626057917221755
aF-9.789193310319957
aF-5.667941295177932
aF-3.889046921746762
aF-3.874217188775712
aF-3.8228134981268025
aF-5.0961787610383436
aF-5.487588242956649
aF-9.884503490124281
aF-2.334262945384427
aF-8.603569644662217
aF-9.884503490124281
aF-9.884503490124281
aF-9.884503490124281
aF-9.884503490124281
aF-9.884503490124281
aF-9.884503490124281
aF-9.884503490124281
aF-9.884503490124281
aF-9.884503490124281
aF-9.884503490124281
aF-6.198127166228464
aF-8.315887572210436
aF-2.0452930427482174
aa(lp15
F-1.756772653933805
aF-3.687145832208403
aF-6.577517590104568
aF-8.846201131422932
aF-1.3670269798995178
aF-6.448305858624561
aF-9.338677616520727
aF-9.028522688216887
aF-2.441431915650449
aF-9.251666239531096
aF-8.90335954526288
aF-6.219119992854389
aF-3.6424997412497446
aF-5.682133543049726
aF-2.2295411507335454
aF-2.6996339767623097
aF-9.43398779632505
aF-5.5100362200316315
aF-3.54234358449928
aF-7.354546254645215
aF-3.469894446013201
aF-9.251666239531096
aF-8.558519058971152
aF-9.43398779632505
aF-3.4264038673371857
aF-9.43398779632505
aF-9.338677616520727
aF-9.43398779632505
aF-9.43398779632505
aF-9.43398779632505
aF-9.43398779632505
aF-9.43398779632505
aF-9.43398779632505
aF-9.43398779632505
aF-9.43398779632505
aF-9.43398779632505
aF-6.3566755357786375
aF-7.236763218988831
aF-1.90072198549878
aa(lp16
F-3.421444724534614
aF-6.776191436285006
aF-3.094131297443125
aF-1.741195102440865
aF-2.502732991418697
aF-4.825093656712878
aF-2.1143794207806117
aF-6.881012723027098
aF-3.3016202862812367
aF-6.260523188043228
aF-4.9190594491312085
aF-4.653988035267089
aF-6.0241344099789975
aF-4.670105600288157
aF-2.8784938524578156
aF-7.766776864242098
aF-6.867625642244638
aF-7.2403867239349955
aF-3.0571289050398485
aF-2.2681364562394495
aF-4.908505261452519
aF-5.3517972289328455
aF-7.341893670276831
aF-7.454880533669722
aF-4.549994732889303
aF-8.80823073907026
aF-10.399319512836163
aF-10.399319512836163
aF-10.494629692640487
aF-10.494629692640487
aF-10.494629692640487
aF-10.399319512836163
aF-10.494629692640487
aF-10.494629692640487
aF-10.494629692640487
aF-10.494629692640487
aF-6.085474390578353
aF-7.390043014174414
aF-1.4678516468943923
aa(lp17
F-5.102086242464398
aF-5.1494427453100275
aF-4.288257542358109
aF-4.0925509238192
aF-5.766943590487411
aF-2.1757063421471083
aF-5.290507736554156
aF-6.099758908139664
aF-4.476250875457506
aF-6.920317207484969
aF-4.433433621303513
aF-3.2284080467790135
aF-2.8239079356752894
aF-1.7690714152274332
aF-3.5201757921300176
aF-3.957713424473596
aF-8.986652401659505
aF-2.1668407522612605
aF-3.378555177137711
aF-3.126281744111341
aF-2.2105493296967333
aF-3.5467631374910695
aF-3.141056949343165
aF-6.663448021462723
aF-5.5202656690288
aF-7.727954697644321
aF-10.555268319573349
aF-10.555268319573349
aF-10.555268319573349
aF-10.555268319573349
aF-10.555268319573349
aF-10.555268319573349
aF-10.555268319573349
aF-10.555268319573349
aF-10.555268319573349
aF-10.555268319573349
aF-6.407382990423219
aF-8.638345707391288
aF-2.214764575099438
aa(lp18
F-2.1377493453013385
aF-7.738923757439457
aF-6.530310573557019
aF-8.609752115236855
aF-1.7359558608463033
aF-6.523390130712445
aF-7.786551806428712
aF-3.646519060035183
aF-2.6557875403840874
aF-9.10222860033465
aF-7.862537713406634
aF-2.386735027233287
aF-6.3643254360827575
aF-7.310469131106594
aF-2.117428108674732
aF-2.792145046510698
aF-9.197538780138974
aF-1.7881600881556456
aF-3.856640966055819
aF-3.297915436696572
aF-3.198354110015854
aF-9.197538780138974
aF-7.130676020665998
aF-9.197538780138974
aF-4.988378543488292
aF-9.197538780138974
aF-9.197538780138974
aF-9.197538780138974
aF-9.197538780138974
aF-9.197538780138974
aF-9.197538780138974
aF-9.197538780138974
aF-9.197538780138974
aF-9.197538780138974
aF-9.197538780138974
aF-9.197538780138974
aF-7.093404625868766
aF-8.861066543517762
aF-2.9391052021767523
aa(lp19
F-6.206777519307003
aF-6.206777519307003
aF-6.206777519307003
aF-6.206777519307003
aF-6.206777519307003
aF-6.206777519307003
aF-6.206777519307003
aF-6.206777519307003
aF-6.206777519307003
aF-6.206777519307003
aF-6.206777519307003
aF-6.206777519307003
aF-6.206777519307003
aF-6.206777519307003
aF-6.206777519307003
aF-6.206777519307003
aF-6.206777519307003
aF-6.206777519307003
aF-6.206777519307003
aF-6.206777519307003
aF-0.08165658738634766
aF-6.206777519307003
aF-6.206777519307003
aF-6.206777519307003
aF-6.206777519307003
aF-6.206777519307003
aF-6.206777519307003
aF-6.206777519307003
aF-6.206777519307003
aF-6.206777519307003
aF-6.206777519307003
aF-6.206777519307003
aF-6.206777519307003
aF-6.206777519307003
aF-6.206777519307003
aF-6.206777519307003
aF-6.206777519307003
aF-6.206777519307003
aF-5.564923633134608
aa(lp20
F-2.576448738795652
aF-6.020612156341251
aF-4.324524269162148
aF-3.7327693450844084
aF-1.423263809245789
aF-5.368258741251043
aF-4.336272935734033
aF-6.073475645898318
aF-2.3685119537306107
aF-9.985498651326465
aF-4.85222440577211
aF-4.6839721538374794
aF-3.7487098032031256
aF-3.9192248474100913
aF-2.323601890408697
aF-5.427120626845132
aF-9.06920791945231
aF-3.639486421295924
aF-2.9047509108388914
aF-3.241691894651697
aF-3.9835535037991994
aF-4.906759769928142
aF-6.329289979502077
aF-10.139649331153723
aF-3.2594365551779867
aF-8.070679089341182
aF-10.321970887947678
aF-10.059606623480187
aF-10.321970887947678
aF-10.321970887947678
aF-10.321970887947678
aF-10.321970887947678
aF-10.226660708143353
aF-10.321970887947678
aF-10.321970887947678
aF-10.139649331153723
aF-6.129290425004715
aF-8.135919611209584
aF-1.7297815474950344
aa(lp21
F-3.223702192289423
aF-6.421288353211348
aF-4.100616859137994
aF-7.850307658997579
aF-2.1602431859711624
aF-6.273130608781701
aF-8.061616752664786
aF-2.918005775877731
aF-2.7822523744583516
aF-9.914000843709276
aF-4.5535893473654445
aF-4.723477506969768
aF-4.600794864667489
aF-6.296348898883708
aF-2.9716026212835995
aF-3.8605890204660906
aF-7.0167086429685375
aF-8.496934823922633
aF-2.8153153357775813
aF-2.1263335881966987
aF-3.2581583862953165
aF-7.950391117554562
aF-5.445939871693591
aF-10.384004472955011
aF-5.2067254347840315
aF-10.047532236333799
aF-10.384004472955011
aF-10.201682916161056
aF-10.12164020848752
aF-10.384004472955011
aF-10.288694293150687
aF-10.288694293150687
aF-10.384004472955011
aF-10.384004472955011
aF-10.384004472955011
aF-10.384004472955011
aF-5.6548483071859295
aF-5.902132503311414
aF-0.9968409661731242
aa(lp22
F-3.1729794740138098
aF-8.996764741064707
aF-5.914690957689152
aF-9.726279565795528
aF-2.3396710422906724
aF-7.235219050433149
aF-8.615397184535604
aF-1.1081221750405652
aF-2.367944190062683
aF-10.719531338805812
aF-9.977593994076434
aF-4.422974657736452
aF-6.084802350576175
aF-7.256925329015012
aF-2.337676886567086
aF-8.303617560504762
aF-10.719531338805812
aF-3.465070646922432
aF-3.683646732113146
aF-4.041566653859677
aF-3.90126322632521
aF-9.689911921624653
aF-5.201275551892513
aF-10.131744673903691
aF-4.2058562230652745
aF-7.985163829386227
aF-10.719531338805812
aF-10.624221159001486
aF-10.719531338805812
aF-10.719531338805812
aF-10.719531338805812
aF-10.719531338805812
aF-10.719531338805812
aF-10.624221159001486
aF-10.719531338805812
aF-10.249527709560075
aF-6.494158514177307
aF-7.434867773399607
aF-1.5854026887755153
aa(lp23
F-3.6915861087193016
aF-3.7350134021513197
aF-3.246351887438183
aF-4.021890645585814
aF-3.282369733768065
aF-5.018123527035979
aF-3.1943827703496703
aF-7.79726964982192
aF-3.7335048787094176
aF-9.4424256448581
aF-6.209109135835105
aF-2.2585549297956473
aF-3.4121775430737435
aF-2.090742407477619
aF-6.097317729846988
aF-3.1017457255456837
aF-8.949949159760305
aF-1.9063526578667551
aF-1.973238047014142
aF-1.9660562237972454
aF-9.275371560194934
aF-6.790464910406933
aF-9.35541426786847
aF-7.31853234060743
aF-7.374412799001886
aF-5.268038374962463
aF-9.537735824662425
aF-9.4424256448581
aF-9.537735824662425
aF-9.4424256448581
aF-9.537735824662425
aF-9.537735824662425
aF-9.537735824662425
aF-9.537735824662425
aF-9.537735824662425
aF-9.537735824662425
aF-8.34381335618999
aF-9.201263588041211
aF-3.272054456056232
aa(lp24
F-2.4707645020881817
aF-8.563656841826278
aF-8.563656841826278
aF-8.563656841826278
aF-0.5215682676016178
aF-8.563656841826278
aF-8.301292577358787
aF-8.563656841826278
aF-1.7454980966558964
aF-8.468346662021952
aF-7.9758701769241585
aF-5.450141532615903
aF-8.563656841826278
aF-4.5709759333806765
aF-2.7915928597536706
aF-8.563656841826278
aF-8.563656841826278
aF-6.271122084685733
aF-4.40947227924816
aF-8.227184605205064
aF-6.29153095631694
aF-8.381335285032323
aF-8.227184605205064
aF-8.563656841826278
aF-5.264123113940622
aF-8.563656841826278
aF-8.381335285032323
aF-8.563656841826278
aF-8.563656841826278
aF-8.563656841826278
aF-8.563656841826278
aF-8.563656841826278
aF-8.563656841826278
aF-8.563656841826278
aF-8.563656841826278
aF-8.563656841826278
aF-7.202680288690677
aF-8.563656841826278
aF-3.125142844784957
aa(lp25
F-1.5987111505023128
aF-7.849873688834782
aF-7.875849175238042
aF-5.352228013269352
aF-1.89337226462744
aF-6.908265148976337
aF-8.294559510096228
aF-1.6242495671391601
aF-1.7644401873035793
aF-9.115540062166058
aF-7.036098520486222
aF-5.48515681473373
aF-8.468912897241006
aF-3.2206364767640534
aF-2.5257386392608043
aF-8.335381504616484
aF-9.210850241970382
aF-4.5722452798960544
aF-4.251508242261678
aF-5.705292844983985
aF-7.581609702240103
aF-9.210850241970382
aF-7.488083644229279
aF-9.210850241970382
aF-6.908265148976337
aF-9.028528685176429
aF-9.210850241970382
aF-9.210850241970382
aF-9.210850241970382
aF-9.210850241970382
aF-9.210850241970382
aF-9.210850241970382
aF-9.210850241970382
aF-9.210850241970382
aF-9.210850241970382
aF-9.210850241970382
aF-6.543622035388428
aF-8.568996355797989
aF-2.1747017482198467
aa(lp26
F-2.269148966858681
aF-6.910651082094162
aF-2.0423476965757033
aF-6.910651082094162
aF-2.4762692170863527
aF-6.035182344740263
aF-6.910651082094162
aF-4.3304342525018376
aF-2.0863453661894003
aF-6.910651082094162
aF-6.910651082094162
aF-6.5051859739859985
aF-6.910651082094162
aF-6.910651082094162
aF-4.468304046724958
aF-1.5111318350371585
aF-6.380022831031992
aF-6.8153409022898375
aF-5.845940345101734
aF-1.8841424388416168
aF-4.3849224377859075
aF-4.369049088629617
aF-6.8153409022898375
aF-4.485848356375868
aF-5.205902989855738
aF-6.910651082094162
aF-6.8153409022898375
aF-6.910651082094162
aF-6.910651082094162
aF-6.910651082094162
aF-6.910651082094162
aF-6.910651082094162
aF-6.910651082094162
aF-6.910651082094162
aF-6.910651082094162
aF-6.8153409022898375
aF-4.361205911168591
aF-5.955139637066726
aF-2.585194798908675
aa(lp27
F-3.9098127724540057
aF-6.1572748418252505
aF-5.674779724685486
aF-6.197166170852553
aF-2.9290573120114014
aF-6.516346910363704
aF-7.233786783492694
aF-8.012456137490801
aF-3.8446841067138835
aF-9.04207555467196
aF-7.473459636758115
aF-4.773777685326421
aF-4.458129005135495
aF-5.530530115840939
aF-2.2299505067050727
aF-4.750247187916227
aF-9.04207555467196
aF-5.787832585966468
aF-3.153197596339079
aF-4.334348780358776
aF-7.06799452864995
aF-7.655781193552069
aF-6.439385869227576
aF-7.70707448793962
aF-9.04207555467196
aF-7.733742735021781
aF-9.04207555467196
aF-9.04207555467196
aF-9.04207555467196
aF-9.04207555467196
aF-9.04207555467196
aF-9.04207555467196
aF-9.04207555467196
aF-9.04207555467196
aF-9.04207555467196
aF-9.04207555467196
aF-4.856976629181395
aF-6.1572748418252505
aF-0.3854857049799819
aa(lp28
F-2.5606400378887946
aF-6.032606490439157
aF-6.032606490439157
aF-4.724273670788978
aF-0.9586834571069829
aF-6.032606490439157
aF-6.032606490439157
aF-3.2353251556090044
aF-2.369044844309511
aF-6.032606490439157
aF-5.696134253817944
aF-3.916350975636605
aF-4.044732142284811
aF-5.039354717428874
aF-1.765710163018907
aF-6.032606490439157
aF-6.032606490439157
aF-6.032606490439157
aF-5.850284933645202
aF-6.032606490439157
aF-3.1478057775924477
aF-5.937296310634832
aF-5.937296310634832
aF-6.032606490439157
aF-4.597521965149834
aF-3.802592090279947
aF-6.032606490439157
aF-5.937296310634832
aF-6.032606490439157
aF-6.032606490439157
aF-6.032606490439157
aF-6.032606490439157
aF-6.032606490439157
aF-6.032606490439157
aF-6.032606490439157
aF-6.032606490439157
aF-5.444819825537038
aF-6.032606490439157
aF-3.199393146382941
aa(lp29
F-6.058763677332373
aF-6.058763677332373
aF-5.627980761239919
aF-6.13880638500591
aF-4.634728988229636
aF-4.691887402069584
aF-6.3211279417998645
aF-6.3211279417998645
aF-6.3211279417998645
aF-6.3211279417998645
aF-6.3211279417998645
aF-6.3211279417998645
aF-6.3211279417998645
aF-6.3211279417998645
aF-6.3211279417998645
aF-6.3211279417998645
aF-6.3211279417998645
aF-6.3211279417998645
aF-6.058763677332373
aF-6.13880638500591
aF-6.3211279417998645
aF-6.3211279417998645
aF-6.3211279417998645
aF-6.3211279417998645
aF-6.3211279417998645
aF-6.22581776199554
aF-2.896865287206713
aF-2.7293102005290595
aF-3.0252910757955354
aF-3.0364643763936607
aF-2.999695528606572
aF-2.6627076951706368
aF-2.3660454469112713
aF-1.5453714552362394
aF-2.3137947565673938
aF-2.5669290215652856
aF-3.8963252160815696
aF-6.13880638500591
aF-2.3873434445902055
aa(lp30
F-5.600440123154612
aF-5.6957503029589365
aF-5.6957503029589365
aF-5.433386038491446
aF-5.5134287461649825
aF-4.564348191467836
aF-5.6957503029589365
aF-5.5134287461649825
aF-5.6957503029589365
aF-5.6957503029589365
aF-5.6957503029589365
aF-5.6957503029589365
aF-5.6957503029589365
aF-5.290285194850773
aF-5.6957503029589365
aF-5.6957503029589365
aF-5.6957503029589365
aF-5.6957503029589365
aF-5.433386038491446
aF-5.225746673713201
aF-5.6957503029589365
aF-5.6957503029589365
aF-5.6957503029589365
aF-5.6957503029589365
aF-5.6957503029589365
aF-5.6957503029589365
aF-2.5866893440979424
aF-2.7888492431115615
aF-2.761893433123033
aF-2.9231615807191553
aF-2.720220736722465
aF-2.822185663379153
aF-2.8803415835362274
aF-2.7356452070480968
aF-2.898468968128784
aF-2.187194402976282
aF-3.306987513723839
aF-5.600440123154612
aF-1.6579760922252305
aa(lp31
F-5.534969267887039
aF-5.534969267887039
aF-5.534969267887039
aF-5.272605003419548
aF-5.534969267887039
aF-4.371818458081358
aF-5.534969267887039
aF-5.439659088082713
aF-5.534969267887039
aF-5.534969267887039
aF-5.534969267887039
aF-5.534969267887039
aF-5.534969267887039
aF-5.534969267887039
aF-5.534969267887039
aF-5.534969267887039
aF-5.534969267887039
aF-4.893115381714644
aF-5.534969267887039
aF-5.272605003419548
aF-5.534969267887039
aF-5.534969267887039
aF-5.534969267887039
aF-5.534969267887039
aF-5.534969267887039
aF-5.534969267887039
aF-2.7255665725245413
aF-2.4952201089162735
aF-2.977741956519412
aF-2.743804160074322
aF-2.847121774102348
aF-2.6784990616665554
aF-2.8336080549356253
aF-2.7813085555327763
aF-2.7941292439618377
aF-2.3694942197459534
aF-3.2028253726514486
aF-5.534969267887039
aF-1.7576211657854943
aa(lp32
F-5.511814540810441
aF-5.511814540810441
aF-5.511814540810441
aF-5.416504361006116
aF-5.511814540810441
aF-4.288039109188325
aF-5.511814540810441
aF-5.511814540810441
aF-5.511814540810441
aF-5.511814540810441
aF-5.511814540810441
aF-5.511814540810441
aF-5.511814540810441
aF-5.511814540810441
aF-5.511814540810441
aF-5.511814540810441
aF-5.511814540810441
aF-5.511814540810441
aF-5.511814540810441
aF-4.924027875908322
aF-5.511814540810441
aF-5.511814540810441
aF-5.511814540810441
aF-5.416504361006116
aF-5.511814540810441
aF-5.511814540810441
aF-2.6611080393067077
aF-2.6326160835124015
aF-2.6439156387663347
aF-2.8239670470257505
aF-2.9165598338535754
aF-2.758153828456179
aF-2.758153828456179
aF-2.684500918881413
aF-2.690435654401228
aF-2.5414000752407397
aF-3.260522742203946
aF-5.511814540810441
aF-1.7670274547582088
aa(lp33
F-5.403127730900382
aF-5.403127730900382
aF-5.403127730900382
aF-5.403127730900382
aF-5.403127730900382
aF-4.614670370536111
aF-5.403127730900382
aF-5.403127730900382
aF-5.403127730900382
aF-5.403127730900382
aF-5.403127730900382
aF-5.403127730900382
aF-5.403127730900382
aF-5.403127730900382
aF-5.403127730900382
aF-5.403127730900382
aF-5.403127730900382
aF-5.403127730900382
aF-5.403127730900382
aF-5.2208061741064276
aF-5.403127730900382
aF-5.403127730900382
aF-5.403127730900382
aF-5.403127730900382
aF-5.307817551096057
aF-5.403127730900382
aF-2.6687602214807984
aF-2.5640492673917676
aF-2.7017665179489683
aF-2.715280237115691
aF-3.1948533173775773
aF-3.311263669221989
aF-2.845900419532755
aF-2.9607806955311773
aF-2.7358995243184268
aF-2.172323335166907
aF-3.1413646324265914
aF-5.403127730900382
aF-1.6993596642926947
aa(lp34
F-5.217403067027444
aF-5.312713246831769
aF-5.312713246831769
aF-5.050348982364278
aF-5.312713246831769
aF-3.9017262731215068
aF-5.312713246831769
aF-5.312713246831769
aF-5.312713246831769
aF-5.312713246831769
aF-5.312713246831769
aF-5.312713246831769
aF-5.312713246831769
aF-5.312713246831769
aF-5.312713246831769
aF-5.312713246831769
aF-5.312713246831769
aF-5.312713246831769
aF-5.217403067027444
aF-4.782084995769599
aF-5.312713246831769
aF-5.312713246831769
aF-5.312713246831769
aF-5.312713246831769
aF-5.312713246831769
aF-5.312713246831769
aF-2.717458539874903
aF-2.8531244050280584
aF-2.811277295092558
aF-2.951859245713748
aF-2.710023561387385
aF-2.8617081487194502
aF-3.126661970093675
aF-3.1044388333089645
aF-2.836174846714285
aF-2.249322324803963
aF-3.061421448225274
aF-5.217403067027444
aF-1.6830531523778038
aa(lp35
F-5.2699178920263385
aF-5.2699178920263385
aF-5.2699178920263385
aF-5.2699178920263385
aF-5.2699178920263385
aF-4.437008769091235
aF-5.2699178920263385
aF-5.2699178920263385
aF-5.2699178920263385
aF-5.2699178920263385
aF-5.2699178920263385
aF-5.2699178920263385
aF-5.2699178920263385
aF-5.2699178920263385
aF-5.2699178920263385
aF-5.2699178920263385
aF-5.2699178920263385
aF-5.2699178920263385
aF-5.174607712222014
aF-4.799914262780603
aF-5.2699178920263385
aF-5.2699178920263385
aF-5.2699178920263385
aF-5.2699178920263385
aF-5.2699178920263385
aF-5.2699178920263385
aF-2.967332799032293
aF-3.0186260934198437
aF-3.0399034918671286
aF-3.2684378918162147
aF-2.8018183605547198
aF-2.5685566790749252
aF-2.4134476858058553
aF-2.5618676909241285
aF-2.6897010624340134
aF-2.760318629647967
aF-3.0186260934198437
aF-5.174607712222014
aF-1.714569830536925
aa(lp36
F-5.539693686123306
aF-5.539693686123306
aF-5.539693686123306
aF-5.444383506318982
aF-5.539693686123306
aF-4.408291574632206
aF-5.539693686123306
aF-5.539693686123306
aF-5.539693686123306
aF-5.539693686123306
aF-5.539693686123306
aF-5.539693686123306
aF-5.539693686123306
aF-5.539693686123306
aF-5.539693686123306
aF-5.539693686123306
aF-5.539693686123306
aF-5.539693686123306
aF-5.444383506318982
aF-5.203221449502093
aF-5.539693686123306
aF-5.539693686123306
aF-5.539693686123306
aF-5.539693686123306
aF-5.539693686123306
aF-5.3573721293293515
aF-2.435107007657233
aF-2.8586721574090155
aF-2.9222978532892268
aF-2.8794341488574444
aF-2.660495228825267
aF-2.3208178612551054
aF-2.6165321054041506
aF-2.90780484598666
aF-2.4951712483998834
aF-2.430632727262312
aF-3.298983996847348
aF-5.444383506318982
aF-2.0865365655304395
aa(lp37
F-5.29931686688112
aF-5.29931686688112
aF-5.29931686688112
aF-5.29931686688112
aF-5.29931686688112
aF-4.018383021419056
aF-5.29931686688112
aF-5.29931686688112
aF-5.29931686688112
aF-5.29931686688112
aF-5.29931686688112
aF-5.29931686688112
aF-5.29931686688112
aF-5.29931686688112
aF-5.29931686688112
aF-5.29931686688112
aF-5.29931686688112
aF-5.29931686688112
aF-5.29931686688112
aF-4.962844630259907
aF-5.29931686688112
aF-5.29931686688112
aF-5.29931686688112
aF-5.29931686688112
aF-5.29931686688112
aF-5.29931686688112
aF-1.999783138995465
aF-2.681921034047041
aF-2.9769291465908947
aF-3.102092289544901
aF-3.0910424533583156
aF-2.9479416097176423
aF-3.3252358408591105
aF-3.147554663621658
aF-2.9575110607337933
aF-2.194730188415047
aF-2.9967317738870745
aF-5.29931686688112
aF-1.83046083674515
aa(lp38
F-5.718342625987531
aF-5.718342625987531
aF-5.718342625987531
aF-5.718342625987531
aF-5.718342625987531
aF-4.410009806337352
aF-5.718342625987531
aF-5.718342625987531
aF-5.718342625987531
aF-5.718342625987531
aF-5.718342625987531
aF-5.718342625987531
aF-5.623032446183206
aF-5.623032446183206
aF-5.718342625987531
aF-5.718342625987531
aF-5.718342625987531
aF-5.718342625987531
aF-5.45597836152004
aF-5.45597836152004
aF-5.718342625987531
aF-5.718342625987531
aF-5.718342625987531
aF-5.718342625987531
aF-5.718342625987531
aF-5.718342625987531
aF-3.2251371733848355
aF-3.168897455061959
aF-3.5211180486513114
aF-3.54359090450337
aF-3.3574886248695095
aF-3.3574886248695095
aF-3.4462167404781936
aF-3.4359602403110046
aF-3.4359602403110046
aF-1.21078526886644
aF-3.366967368824053
aF-5.718342625987531
aF-1.3425856043272446
aa(lp39
F-2.8180376770101825
aF-3.6224673286234177
aF-3.3851695628815555
aF-3.783843473411718
aF-4.053084117960776
aF-3.4557455802876706
aF-4.300608868565493
aF-3.694086292605904
aF-3.284761666005562
aF-5.1752269040390795
aF-5.185483404206269
aF-3.893726325776355
aF-3.8602970291271603
aF-4.02362208523046
aF-4.020401470530418
aF-3.8147737741030765
aF-6.669151929351336
aF-3.888076593234236
aF-2.9734774321045707
aF-2.3687791480342937
aF-5.096755288597585
aF-5.429461042423321
aF-3.496796120118028
aF-7.362299109911281
aF-5.125465394480016
aF-6.5821405523617065
aF-4.471927352015117
aF-4.89265993225407
aF-5.238405805660611
aF-5.195846191241816
aF-5.165074532575062
aF-5.752861197477181
aF-6.294458479909926
aF-6.122608222983266
aF-6.541318557841451
aF-7.362299109911281
aF-1.0525461346027376
aF-4.6664441819028895
aF-5.771210336145377
aa(lp40
F-3.210734667284501
aF-3.9220641669276364
aF-2.96092286888813
aF-3.671769626547476
aF-3.557166243808472
aF-3.8176215035600394
aF-4.231385414482899
aF-3.7230629209350266
aF-3.7382147259556286
aF-5.477917833227631
aF-5.723040291260616
aF-3.834288556045251
aF-3.969021150015408
aF-4.552969038610361
aF-4.470277322765248
aF-3.4316284988646952
aF-6.12850539936878
aF-4.136075234678574
aF-2.8052695591763364
aF-2.4953148511154324
aF-5.02989311070067
aF-4.5880603584216315
aF-4.806749559386461
aF-5.723040291260616
aF-6.310826956162734
aF-6.310826956162734
aF-6.310826956162734
aF-6.21551677635841
aF-6.310826956162734
aF-6.310826956162734
aF-6.310826956162734
aF-6.310826956162734
aF-6.21551677635841
aF-6.310826956162734
aF-6.310826956162734
aF-6.310826956162734
aF-2.365369174648351
aF-6.310826956162734
aF-1.0781153467126918
aa(lp41
F-2.159554354134322
aF-3.137642037836701
aF-3.212797363465248
aF-3.562245358240214
aF-3.8421944005043596
aF-3.2744188022954206
aF-4.13917087815121
aF-2.790047150698815
aF-2.7582179561346294
aF-5.692634900012349
aF-5.276352720874336
aF-3.7868519178278954
aF-3.3583592457685785
aF-3.817799153705178
aF-2.6488486887527096
aF-3.3747693256574665
aF-6.242070852752139
aF-3.6876646565753934
aF-2.7109243423484872
aF-1.8671342409372436
aF-4.4778733376281545
aF-4.9269141645724375
aF-2.808451557029771
aF-7.801703935474394
aF-4.705848895959866
aF-8.50910313874154
aF-5.776165844408894
aF-6.774783575262401
aF-6.9679748042932586
aF-6.936706497987789
aF-7.314745793115046
aF-8.124589643119155
aF-8.604413318545864
aF-8.647430703629556
aF-8.52356122191677
aF-10.555600524702022
aF-9.900193672124924
aF-6.320421058628435
aF-3.3940072553308274
aas.